target datalayout = "e-m:e-p270:32:32-p271:32:32-p272:64:64-i64:64-i128:128-f80:128-n8:16:32:64-S128"
target triple = "x86_64-pc-linux-gnu"

%"class.std::__cxx11::basic_string" = type { %"struct.std::__cxx11::basic_string<char>::_Alloc_hider", i64, %union.anon }
%"struct.std::__cxx11::basic_string<char>::_Alloc_hider" = type { ptr }
%union.anon = type { i64, [8 x i8] }
%class.cmLocalGenerator = type { %class.cmOutputConverter.base, ptr, %class.cmListFileBacktrace, ptr, %"class.std::map", i64, %"class.std::set", %"class.std::vector", %"class.std::unordered_map", %"class.std::vector.15", %"class.std::set.20", %"class.std::unordered_map", %"class.std::vector.15", %"class.std::map", %"class.std::map", %"class.std::map", %"class.std::__cxx11::basic_string", %"class.std::__cxx11::basic_string", %"class.std::unordered_map.28", i8, i64, i8, %"class.std::unordered_map.42" }
%class.cmOutputConverter.base = type <{ ptr, %class.cmStateSnapshot, i8, [7 x i8], %"class.std::__cxx11::basic_string", %"class.std::__cxx11::basic_string", i32 }>
%class.cmStateSnapshot = type { ptr, %"class.cmLinkedTree<cmStateDetail::SnapshotDataType>::iterator" }
%"class.cmLinkedTree<cmStateDetail::SnapshotDataType>::iterator" = type { ptr, i64 }
%class.cmListFileBacktrace = type { %class.cmConstStack }
%class.cmConstStack = type { %"class.std::shared_ptr" }
%"class.std::shared_ptr" = type { %"class.std::__shared_ptr" }
%"class.std::__shared_ptr" = type { ptr, %"class.std::__shared_count" }
%"class.std::__shared_count" = type { ptr }
%"class.std::set" = type { %"class.std::_Rb_tree.3" }
%"class.std::_Rb_tree.3" = type { %"struct.std::_Rb_tree<std::__cxx11::basic_string<char>, std::__cxx11::basic_string<char>, std::_Identity<std::__cxx11::basic_string<char>>, std::less<std::__cxx11::basic_string<char>>>::_Rb_tree_impl" }
%"struct.std::_Rb_tree<std::__cxx11::basic_string<char>, std::__cxx11::basic_string<char>, std::_Identity<std::__cxx11::basic_string<char>>, std::less<std::__cxx11::basic_string<char>>>::_Rb_tree_impl" = type { %"struct.std::_Rb_tree_key_compare", %"struct.std::_Rb_tree_header" }
%"struct.std::_Rb_tree_key_compare" = type { %"struct.std::less" }
%"struct.std::less" = type { i8 }
%"struct.std::_Rb_tree_header" = type { %"struct.std::_Rb_tree_node_base", i64 }
%"struct.std::_Rb_tree_node_base" = type { i32, ptr, ptr, ptr }
%"class.std::set.20" = type { %"class.std::_Rb_tree.21" }
%"class.std::_Rb_tree.21" = type { %"struct.std::_Rb_tree<const cmGeneratorTarget *, const cmGeneratorTarget *, std::_Identity<const cmGeneratorTarget *>, std::less<const cmGeneratorTarget *>>::_Rb_tree_impl" }
%"struct.std::_Rb_tree<const cmGeneratorTarget *, const cmGeneratorTarget *, std::_Identity<const cmGeneratorTarget *>, std::less<const cmGeneratorTarget *>>::_Rb_tree_impl" = type { %"struct.std::_Rb_tree_key_compare.25", %"struct.std::_Rb_tree_header" }
%"struct.std::_Rb_tree_key_compare.25" = type { %"struct.std::less.26" }
%"struct.std::less.26" = type { i8 }
%"class.std::unordered_map" = type { %"class.std::_Hashtable" }
%"class.std::_Hashtable" = type { ptr, i64, %"struct.std::__detail::_Hash_node_base", i64, %"struct.std::__detail::_Prime_rehash_policy", ptr }
%"struct.std::__detail::_Hash_node_base" = type { ptr }
%"struct.std::__detail::_Prime_rehash_policy" = type { float, i64 }
%"class.std::vector.15" = type { %"struct.std::_Vector_base.16" }
%"struct.std::_Vector_base.16" = type { %"struct.std::_Vector_base<std::unique_ptr<cmGeneratorTarget>, std::allocator<std::unique_ptr<cmGeneratorTarget>>>::_Vector_impl" }
%"struct.std::_Vector_base<std::unique_ptr<cmGeneratorTarget>, std::allocator<std::unique_ptr<cmGeneratorTarget>>>::_Vector_impl" = type { %"struct.std::_Vector_base<std::unique_ptr<cmGeneratorTarget>, std::allocator<std::unique_ptr<cmGeneratorTarget>>>::_Vector_impl_data" }
%"struct.std::_Vector_base<std::unique_ptr<cmGeneratorTarget>, std::allocator<std::unique_ptr<cmGeneratorTarget>>>::_Vector_impl_data" = type { ptr, ptr, ptr }
%"class.std::unordered_map.28" = type { %"class.std::_Hashtable.29" }
%"class.std::_Hashtable.29" = type { ptr, i64, %"struct.std::__detail::_Hash_node_base", i64, %"struct.std::__detail::_Prime_rehash_policy", ptr }
%"class.std::unordered_map.42" = type { %"class.std::_Hashtable.43" }
%"class.std::_Hashtable.43" = type { ptr, i64, %"struct.std::__detail::_Hash_node_base", i64, %"struct.std::__detail::_Prime_rehash_policy", ptr }
%"class.std::vector" = type { %"struct.std::_Vector_base" }
%"struct.std::_Vector_base" = type { %"struct.std::_Vector_base<std::__cxx11::basic_string<char>, std::allocator<std::__cxx11::basic_string<char>>>::_Vector_impl" }
%"struct.std::_Vector_base<std::__cxx11::basic_string<char>, std::allocator<std::__cxx11::basic_string<char>>>::_Vector_impl" = type { %"struct.std::_Vector_base<std::__cxx11::basic_string<char>, std::allocator<std::__cxx11::basic_string<char>>>::_Vector_impl_data" }
%"struct.std::_Vector_base<std::__cxx11::basic_string<char>, std::allocator<std::__cxx11::basic_string<char>>>::_Vector_impl_data" = type { ptr, ptr, ptr }
%"class.std::map" = type { %"class.std::_Rb_tree" }
%"class.std::_Rb_tree" = type { %"struct.std::_Rb_tree<std::__cxx11::basic_string<char>, std::pair<const std::__cxx11::basic_string<char>, std::__cxx11::basic_string<char>>, std::_Select1st<std::pair<const std::__cxx11::basic_string<char>, std::__cxx11::basic_string<char>>>, std::less<std::__cxx11::basic_string<char>>>::_Rb_tree_impl" }
%"struct.std::_Rb_tree<std::__cxx11::basic_string<char>, std::pair<const std::__cxx11::basic_string<char>, std::__cxx11::basic_string<char>>, std::_Select1st<std::pair<const std::__cxx11::basic_string<char>, std::__cxx11::basic_string<char>>>, std::less<std::__cxx11::basic_string<char>>>::_Rb_tree_impl" = type { %"struct.std::_Rb_tree_key_compare", %"struct.std::_Rb_tree_header" }

@.str.5 = private unnamed_addr constant [2 x i8] c".\00", align 1
@.str.106 = private unnamed_addr constant [2 x i8] c"\22\00", align 1
@.str.244 = private unnamed_addr constant [38 x i8] c"# CMAKE generated file: DO NOT EDIT!\0A\00", align 1
@.str.245 = private unnamed_addr constant [17 x i8] c"# Generated by \22\00", align 1
@.str.246 = private unnamed_addr constant [27 x i8] c" Generator, CMake Version \00", align 1
@.str.247 = private unnamed_addr constant [3 x i8] c"\0A\0A\00", align 1

; Function Attrs: mustprogress uwtable
define dso_local void @_ZN29cmLocalUnixMakefileGenerator315WriteDisclaimerERSo(ptr noundef nonnull align 8 dereferenceable(1112) %0, ptr noundef nonnull align 8 dereferenceable(8) %1) #4 align 2 personality ptr @__gxx_personality_v0 {
  %3 = alloca ptr, align 8
  %4 = alloca ptr, align 8
  %5 = alloca %"class.std::__cxx11::basic_string", align 8
  %6 = alloca ptr, align 8
  %7 = alloca i32, align 4
  store ptr %0, ptr %3, align 8
  store ptr %1, ptr %4, align 8
  %8 = load ptr, ptr %3, align 8
  %9 = load ptr, ptr %4, align 8
  %10 = call noundef nonnull align 8 dereferenceable(8) ptr @_ZStlsISt11char_traitsIcEERSt13basic_ostreamIcT_ES5_PKc(ptr noundef nonnull align 8 dereferenceable(8) %9, ptr noundef @.str.244)
  %11 = call noundef nonnull align 8 dereferenceable(8) ptr @_ZStlsISt11char_traitsIcEERSt13basic_ostreamIcT_ES5_PKc(ptr noundef nonnull align 8 dereferenceable(8) %10, ptr noundef @.str.245)
  %12 = getelementptr inbounds %class.cmLocalGenerator, ptr %8, i32 0, i32 3
  %13 = load ptr, ptr %12, align 8
  %14 = load ptr, ptr %13, align 8
  %15 = getelementptr inbounds ptr, ptr %14, i64 3
  %16 = load ptr, ptr %15, align 8
  call void %16(ptr dead_on_unwind writable sret(%"class.std::__cxx11::basic_string") align 8 %5, ptr noundef nonnull align 8 dereferenceable(1778) %13)
  %17 = invoke noundef nonnull align 8 dereferenceable(8) ptr @_ZStlsIcSt11char_traitsIcESaIcEERSt13basic_ostreamIT_T0_ES7_RKNSt7__cxx1112basic_stringIS4_S5_T1_EE(ptr noundef nonnull align 8 dereferenceable(8) %11, ptr noundef nonnull align 8 dereferenceable(32) %5)
          to label %18 unwind label %35

18:                                               ; preds = %2
  %19 = invoke noundef nonnull align 8 dereferenceable(8) ptr @_ZStlsISt11char_traitsIcEERSt13basic_ostreamIcT_ES5_PKc(ptr noundef nonnull align 8 dereferenceable(8) %17, ptr noundef @.str.106)
          to label %20 unwind label %35

20:                                               ; preds = %18
  %21 = invoke noundef nonnull align 8 dereferenceable(8) ptr @_ZStlsISt11char_traitsIcEERSt13basic_ostreamIcT_ES5_PKc(ptr noundef nonnull align 8 dereferenceable(8) %19, ptr noundef @.str.246)
          to label %22 unwind label %35

22:                                               ; preds = %20
  %23 = invoke noundef i32 @_ZN9cmVersion15GetMajorVersionEv()
          to label %24 unwind label %35

24:                                               ; preds = %22
  %25 = invoke noundef nonnull align 8 dereferenceable(8) ptr @_ZNSolsEj(ptr noundef nonnull align 8 dereferenceable(8) %21, i32 noundef %23)
          to label %26 unwind label %35

26:                                               ; preds = %24
  %27 = invoke noundef nonnull align 8 dereferenceable(8) ptr @_ZStlsISt11char_traitsIcEERSt13basic_ostreamIcT_ES5_PKc(ptr noundef nonnull align 8 dereferenceable(8) %25, ptr noundef @.str.5)
          to label %28 unwind label %35

28:                                               ; preds = %26
  %29 = invoke noundef i32 @_ZN9cmVersion15GetMinorVersionEv()
          to label %30 unwind label %35

30:                                               ; preds = %28
  %31 = invoke noundef nonnull align 8 dereferenceable(8) ptr @_ZNSolsEj(ptr noundef nonnull align 8 dereferenceable(8) %27, i32 noundef %29)
          to label %32 unwind label %35

32:                                               ; preds = %30
  %33 = invoke noundef nonnull align 8 dereferenceable(8) ptr @_ZStlsISt11char_traitsIcEERSt13basic_ostreamIcT_ES5_PKc(ptr noundef nonnull align 8 dereferenceable(8) %31, ptr noundef @.str.247)
          to label %34 unwind label %35

34:                                               ; preds = %32
  call void @_ZNSt7__cxx1112basic_stringIcSt11char_traitsIcESaIcEED1Ev(ptr noundef nonnull align 8 dereferenceable(32) %5) #3
  ret void

35:                                               ; preds = %32, %30, %28, %26, %24, %22, %20, %18, %2
  %36 = landingpad { ptr, i32 }
          cleanup
  %37 = extractvalue { ptr, i32 } %36, 0
  store ptr %37, ptr %6, align 8
  %38 = extractvalue { ptr, i32 } %36, 1
  store i32 %38, ptr %7, align 4
  call void @_ZNSt7__cxx1112basic_stringIcSt11char_traitsIcESaIcEED1Ev(ptr noundef nonnull align 8 dereferenceable(32) %5) #3
  br label %39

39:                                               ; preds = %35
  %40 = load ptr, ptr %6, align 8
  %41 = load i32, ptr %7, align 4
  %42 = insertvalue { ptr, i32 } poison, ptr %40, 0
  %43 = insertvalue { ptr, i32 } %42, i32 %41, 1
  resume { ptr, i32 } %43
}